target datalayout = "e-m:e-p270:32:32-p271:32:32-p272:64:64-i64:64-i128:128-f80:128-n8:16:32:64-S128"
target triple = "x86_64-pc-linux-gnu"

%struct.SubDiagonalOp = type { i32, i64, ptr, ptr }

@__func__.createSubDiagonalOp = private unnamed_addr constant [20 x i8] c"createSubDiagonalOp\00", align 1

; Function Attrs: nounwind uwtable
define void @createSubDiagonalOp(ptr dead_on_unwind noalias writable sret(%struct.SubDiagonalOp) align 8 %0, i32 noundef %1) #0 {
  %3 = alloca i32, align 4
  store i32 %1, ptr %3, align 4, !tbaa !4
  %4 = load i32, ptr %3, align 4, !tbaa !4
  call void @validateNumQubitsInSubDiagOp(i32 noundef %4, ptr noundef @__func__.createSubDiagonalOp)
  %5 = load i32, ptr %3, align 4, !tbaa !4
  %6 = getelementptr inbounds nuw %struct.SubDiagonalOp, ptr %0, i32 0, i32 0
  store i32 %5, ptr %6, align 8, !tbaa !56
  %7 = load i32, ptr %3, align 4, !tbaa !4
  %8 = zext i32 %7 to i64
  %9 = shl i64 1, %8
  %10 = getelementptr inbounds nuw %struct.SubDiagonalOp, ptr %0, i32 0, i32 1
  store i64 %9, ptr %10, align 8, !tbaa !58
  %11 = getelementptr inbounds nuw %struct.SubDiagonalOp, ptr %0, i32 0, i32 1
  %12 = load i64, ptr %11, align 8, !tbaa !58
  %13 = call noalias ptr @calloc(i64 noundef %12, i64 noundef 8) #9
  %14 = getelementptr inbounds nuw %struct.SubDiagonalOp, ptr %0, i32 0, i32 2
  store ptr %13, ptr %14, align 8, !tbaa !59
  %15 = getelementptr inbounds nuw %struct.SubDiagonalOp, ptr %0, i32 0, i32 1
  %16 = load i64, ptr %15, align 8, !tbaa !58
  %17 = call noalias ptr @calloc(i64 noundef %16, i64 noundef 8) #9
  %18 = getelementptr inbounds nuw %struct.SubDiagonalOp, ptr %0, i32 0, i32 3
  store ptr %17, ptr %18, align 8, !tbaa !60
  ret void
}