; Function Attrs: nounwind uwtable
define void @createSubDiagonalOp(ptr dead_on_unwind noalias writable writeonly sret(%struct.SubDiagonalOp) align 8 captures(none) initializes((0, 4), (8, 32)) %0, i32 noundef %1) local_unnamed_addr #0 {
  tail call void @validateNumQubitsInSubDiagOp(i32 noundef %1, ptr noundef nonnull @__func__.createSubDiagonalOp) #17
  store i32 %1, ptr %0, align 8, !tbaa !39
  %3 = zext nneg i32 %1 to i64
  %4 = shl nuw i64 1, %3
  %5 = getelementptr inbounds nuw i8, ptr %0, i64 8
  store i64 %4, ptr %5, align 8, !tbaa !41
  %6 = tail call noalias ptr @calloc(i64 noundef %4, i64 noundef 8) #19
  %7 = getelementptr inbounds nuw i8, ptr %0, i64 16
  store ptr %6, ptr %7, align 8, !tbaa !42
  %8 = tail call noalias ptr @calloc(i64 noundef %4, i64 noundef 8) #19
  %9 = getelementptr inbounds nuw i8, ptr %0, i64 24
  store ptr %8, ptr %9, align 8, !tbaa !43
  ret void
}